target datalayout = "e-m:e-p270:32:32-p271:32:32-p272:64:64-i64:64-i128:128-f80:128-n8:16:32:64-S128"
target triple = "x86_64-pc-linux-gnu"

%class.duDisplayList = type <{ %struct.duDebugDraw, ptr, ptr, i32, i32, i32, float, i8, [7 x i8] }>
%struct.duDebugDraw = type { ptr }

; Function Attrs: mustprogress nounwind uwtable
define void @_ZN11duDebugDrawD2Ev(ptr noundef nonnull align 8 dereferenceable(8) %0) unnamed_addr #0 align 2 {
  %2 = alloca ptr, align 8
  store ptr %0, ptr %2, align 8
  ret void
}

; Function Attrs: mustprogress uwtable
define void @_ZN13duDisplayList6resizeEi(ptr noundef nonnull align 8 dereferenceable(41) %0, i32 noundef %1) #2 align 2 {
  %3 = alloca ptr, align 8
  %4 = alloca i32, align 4
  %5 = alloca ptr, align 8
  %6 = alloca ptr, align 8
  store ptr %0, ptr %3, align 8
  store i32 %1, ptr %4, align 4
  %7 = load ptr, ptr %3, align 8
  %8 = load i32, ptr %4, align 4
  %9 = mul nsw i32 %8, 3
  %10 = sext i32 %9 to i64
  %11 = call { i64, i1 } @llvm.umul.with.overflow.i64(i64 %10, i64 4)
  %12 = extractvalue { i64, i1 } %11, 1
  %13 = extractvalue { i64, i1 } %11, 0
  %14 = select i1 %12, i64 -1, i64 %13
  %15 = call noalias noundef nonnull ptr @_Znam(i64 noundef %14) #10
  store ptr %15, ptr %5, align 8
  %16 = getelementptr inbounds %class.duDisplayList, ptr %7, i32 0, i32 3
  %17 = load i32, ptr %16, align 8
  %18 = icmp ne i32 %17, 0
  br i1 %18, label %19, label %27

19:                                               ; preds = %2
  %20 = load ptr, ptr %5, align 8
  %21 = getelementptr inbounds %class.duDisplayList, ptr %7, i32 0, i32 1
  %22 = load ptr, ptr %21, align 8
  %23 = getelementptr inbounds %class.duDisplayList, ptr %7, i32 0, i32 3
  %24 = load i32, ptr %23, align 8
  %25 = sext i32 %24 to i64
  %26 = mul i64 12, %25
  call void @llvm.memcpy.p0.p0.i64(ptr align 4 %20, ptr align 4 %22, i64 %26, i1 false)
  br label %27

27:                                               ; preds = %19, %2
  %28 = getelementptr inbounds %class.duDisplayList, ptr %7, i32 0, i32 1
  %29 = load ptr, ptr %28, align 8
  %30 = icmp eq ptr %29, null
  br i1 %30, label %32, label %31

31:                                               ; preds = %27
  call void @_ZdaPv(ptr noundef %29) #11
  br label %32

32:                                               ; preds = %31, %27
  %33 = load ptr, ptr %5, align 8
  %34 = getelementptr inbounds %class.duDisplayList, ptr %7, i32 0, i32 1
  store ptr %33, ptr %34, align 8
  %35 = load i32, ptr %4, align 4
  %36 = sext i32 %35 to i64
  %37 = call { i64, i1 } @llvm.umul.with.overflow.i64(i64 %36, i64 4)
  %38 = extractvalue { i64, i1 } %37, 1
  %39 = extractvalue { i64, i1 } %37, 0
  %40 = select i1 %38, i64 -1, i64 %39
  %41 = call noalias noundef nonnull ptr @_Znam(i64 noundef %40) #10
  store ptr %41, ptr %6, align 8
  %42 = getelementptr inbounds %class.duDisplayList, ptr %7, i32 0, i32 3
  %43 = load i32, ptr %42, align 8
  %44 = icmp ne i32 %43, 0
  br i1 %44, label %45, label %53

45:                                               ; preds = %32
  %46 = load ptr, ptr %6, align 8
  %47 = getelementptr inbounds %class.duDisplayList, ptr %7, i32 0, i32 2
  %48 = load ptr, ptr %47, align 8
  %49 = getelementptr inbounds %class.duDisplayList, ptr %7, i32 0, i32 3
  %50 = load i32, ptr %49, align 8
  %51 = sext i32 %50 to i64
  %52 = mul i64 4, %51
  call void @llvm.memcpy.p0.p0.i64(ptr align 4 %46, ptr align 4 %48, i64 %52, i1 false)
  br label %53

53:                                               ; preds = %45, %32
  %54 = getelementptr inbounds %class.duDisplayList, ptr %7, i32 0, i32 2
  %55 = load ptr, ptr %54, align 8
  %56 = icmp eq ptr %55, null
  br i1 %56, label %58, label %57

57:                                               ; preds = %53
  call void @_ZdaPv(ptr noundef %55) #11
  br label %58

58:                                               ; preds = %57, %53
  %59 = load ptr, ptr %6, align 8
  %60 = getelementptr inbounds %class.duDisplayList, ptr %7, i32 0, i32 2
  store ptr %59, ptr %60, align 8
  %61 = load i32, ptr %4, align 4
  %62 = getelementptr inbounds %class.duDisplayList, ptr %7, i32 0, i32 4
  store i32 %61, ptr %62, align 4
  ret void
}

; Function Attrs: mustprogress nounwind uwtable
define linkonce_odr void @_ZN11duDebugDrawC2Ev(ptr noundef nonnull align 8 dereferenceable(8) %0) unnamed_addr #0 comdat align 2 {
  %2 = alloca ptr, align 8
  store ptr %0, ptr %2, align 8
  %3 = load ptr, ptr %2, align 8
  store ptr getelementptr inbounds ({ [13 x ptr] }, ptr @_ZTV11duDebugDraw, i32 0, i32 0, i32 2), ptr %3, align 8
  ret void
}

; Function Attrs: mustprogress uwtable
define void @_ZN13duDisplayListC2Ei(ptr noundef nonnull align 8 dereferenceable(41) %0, i32 noundef %1) unnamed_addr #2 align 2 personality ptr @__gxx_personality_v0 {
  %3 = alloca ptr, align 8
  %4 = alloca i32, align 4
  %5 = alloca ptr, align 8
  %6 = alloca i32, align 4
  store ptr %0, ptr %3, align 8
  store i32 %1, ptr %4, align 4
  %7 = load ptr, ptr %3, align 8
  call void @_ZN11duDebugDrawC2Ev(ptr noundef nonnull align 8 dereferenceable(8) %7) #9
  store ptr getelementptr inbounds ({ [13 x ptr] }, ptr @_ZTV13duDisplayList, i32 0, i32 0, i32 2), ptr %7, align 8
  %8 = getelementptr inbounds %class.duDisplayList, ptr %7, i32 0, i32 1
  store ptr null, ptr %8, align 8
  %9 = getelementptr inbounds %class.duDisplayList, ptr %7, i32 0, i32 2
  store ptr null, ptr %9, align 8
  %10 = getelementptr inbounds %class.duDisplayList, ptr %7, i32 0, i32 3
  store i32 0, ptr %10, align 8
  %11 = getelementptr inbounds %class.duDisplayList, ptr %7, i32 0, i32 4
  store i32 0, ptr %11, align 4
  %12 = getelementptr inbounds %class.duDisplayList, ptr %7, i32 0, i32 5
  store i32 1, ptr %12, align 8
  %13 = getelementptr inbounds %class.duDisplayList, ptr %7, i32 0, i32 6
  store float 1.000000e+00, ptr %13, align 4
  %14 = getelementptr inbounds %class.duDisplayList, ptr %7, i32 0, i32 7
  store i8 1, ptr %14, align 8
  %15 = load i32, ptr %4, align 4
  %16 = icmp slt i32 %15, 8
  br i1 %16, label %17, label %18

17:                                               ; preds = %2
  store i32 8, ptr %4, align 4
  br label %18

18:                                               ; preds = %17, %2
  %19 = load i32, ptr %4, align 4
  invoke void @_ZN13duDisplayList6resizeEi(ptr noundef nonnull align 8 dereferenceable(41) %7, i32 noundef %19)
          to label %20 unwind label %21

20:                                               ; preds = %18
  ret void

21:                                               ; preds = %18
  %22 = landingpad { ptr, i32 }
          cleanup
  %23 = extractvalue { ptr, i32 } %22, 0
  store ptr %23, ptr %5, align 8
  %24 = extractvalue { ptr, i32 } %22, 1
  store i32 %24, ptr %6, align 4
  call void @_ZN11duDebugDrawD2Ev(ptr noundef nonnull align 8 dereferenceable(8) %7) #9
  br label %25

25:                                               ; preds = %21
  %26 = load ptr, ptr %5, align 8
  %27 = load i32, ptr %6, align 4
  %28 = insertvalue { ptr, i32 } poison, ptr %26, 0
  %29 = insertvalue { ptr, i32 } %28, i32 %27, 1
  resume { ptr, i32 } %29
}