; Function Attrs: mustprogress uwtable
define void @_ZN13duDisplayListC2Ei(ptr nocapture noundef nonnull writeonly align 8 dereferenceable(41) %0, i32 noundef %1) unnamed_addr #4 align 2 personality ptr @__gxx_personality_v0 {
  store ptr getelementptr inbounds ({ [13 x ptr] }, ptr @_ZTV13duDisplayList, i64 0, i32 0, i64 2), ptr %0, align 8
  %3 = getelementptr inbounds i8, ptr %0, i64 8
  %4 = getelementptr inbounds i8, ptr %0, i64 16
  %5 = getelementptr inbounds i8, ptr %0, i64 28
  %6 = getelementptr inbounds i8, ptr %0, i64 32
  tail call void @llvm.memset.p0.i64(ptr noundef nonnull align 8 dereferenceable(24) %3, i8 0, i64 24, i1 false)
  store i32 1, ptr %6, align 8
  %7 = getelementptr inbounds i8, ptr %0, i64 36
  store float 1.000000e+00, ptr %7, align 4
  %8 = getelementptr inbounds i8, ptr %0, i64 40
  store i8 1, ptr %8, align 8
  %spec.store.select = tail call i32 @llvm.smax.i32(i32 %1, i32 8)
  %9 = mul nsw i32 %spec.store.select, 3
  %10 = zext nneg i32 %9 to i64
  %11 = shl nuw nsw i64 %10, 2
  %12 = tail call noalias noundef nonnull ptr @_Znam(i64 noundef %11) #16
  store ptr %12, ptr %3, align 8
  %13 = zext nneg i32 %spec.store.select to i64
  %14 = shl nuw nsw i64 %13, 2
  %15 = tail call noalias noundef nonnull ptr @_Znam(i64 noundef %14) #16
  store ptr %15, ptr %4, align 8
  store i32 %spec.store.select, ptr %5, align 4
  ret void
}